; ModuleID = '24/554.c'
source_filename = "24/554.c"
target datalayout = "e-m:e-p270:32:32-p271:32:32-p272:64:64-i64:64-f80:128-n8:16:32:64-S128"
target triple = "x86_64-pc-linux-gnu"

@.str = private unnamed_addr constant [3 x i8] c"%c\00", align 1
@.str.1 = private unnamed_addr constant [2 x i8] c"\0A\00", align 1
@word = common dso_local global [200 x i8] zeroinitializer, align 16

; Function Attrs: noinline nounwind uwtable
define dso_local i32 @main(i32 %0, i8** %1) #0 {
  %3 = alloca i32, align 4
  %4 = alloca i32, align 4
  %5 = alloca i8**, align 8
  %6 = alloca i32, align 4
  %7 = alloca i32, align 4
  %8 = alloca i32, align 4
  %9 = alloca [50 x i32], align 16
  %10 = alloca [50 x i32], align 16
  %11 = alloca i32, align 4
  %12 = alloca i32, align 4
  %13 = alloca i32, align 4
  %14 = alloca [300 x i8], align 16
  store i32 0, i32* %3, align 4
  store i32 %0, i32* %4, align 4
  store i8** %1, i8*** %5, align 8
  %15 = getelementptr inbounds [300 x i8], [300 x i8]* %14, i64 0, i64 0
  %16 = call i32 (i8*, ...) bitcast (i32 (...)* @gets to i32 (i8*, ...)*)(i8* %15)
  %17 = getelementptr inbounds [300 x i8], [300 x i8]* %14, i64 0, i64 0
  %18 = call i64 @strlen(i8* %17) #3
  %19 = trunc i64 %18 to i32
  store i32 %19, i32* %8, align 4
  %20 = load i32, i32* %8, align 4
  %21 = sext i32 %20 to i64
  %22 = getelementptr inbounds [300 x i8], [300 x i8]* %14, i64 0, i64 %21
  store i8 32, i8* %22, align 1
  %23 = getelementptr inbounds [50 x i32], [50 x i32]* %9, i64 0, i64 0
  store i32 -1, i32* %23, align 16
  store i32 0, i32* %7, align 4
  store i32 0, i32* %6, align 4
  br label %24

24:                                               ; preds = %57, %2
  %25 = load i32, i32* %6, align 4
  %26 = load i32, i32* %8, align 4
  %27 = icmp sle i32 %25, %26
  br i1 %27, label %28, label %60

28:                                               ; preds = %24
  %29 = load i32, i32* %6, align 4
  %30 = sext i32 %29 to i64
  %31 = getelementptr inbounds [300 x i8], [300 x i8]* %14, i64 0, i64 %30
  %32 = load i8, i8* %31, align 1
  %33 = sext i8 %32 to i32
  %34 = icmp eq i32 %33, 32
  br i1 %34, label %35, label %56

35:                                               ; preds = %28
  %36 = load i32, i32* %7, align 4
  %37 = add nsw i32 %36, 1
  store i32 %37, i32* %7, align 4
  %38 = load i32, i32* %6, align 4
  %39 = load i32, i32* %7, align 4
  %40 = sext i32 %39 to i64
  %41 = getelementptr inbounds [50 x i32], [50 x i32]* %9, i64 0, i64 %40
  store i32 %38, i32* %41, align 4
  %42 = load i32, i32* %7, align 4
  %43 = sext i32 %42 to i64
  %44 = getelementptr inbounds [50 x i32], [50 x i32]* %9, i64 0, i64 %43
  %45 = load i32, i32* %44, align 4
  %46 = load i32, i32* %7, align 4
  %47 = sub nsw i32 %46, 1
  %48 = sext i32 %47 to i64
  %49 = getelementptr inbounds [50 x i32], [50 x i32]* %9, i64 0, i64 %48
  %50 = load i32, i32* %49, align 4
  %51 = sub nsw i32 %45, %50
  %52 = sub nsw i32 %51, 1
  %53 = load i32, i32* %7, align 4
  %54 = sext i32 %53 to i64
  %55 = getelementptr inbounds [50 x i32], [50 x i32]* %10, i64 0, i64 %54
  store i32 %52, i32* %55, align 4
  br label %56

56:                                               ; preds = %35, %28
  br label %57

57:                                               ; preds = %56
  %58 = load i32, i32* %6, align 4
  %59 = add nsw i32 %58, 1
  store i32 %59, i32* %6, align 4
  br label %24

60:                                               ; preds = %24
  %61 = load i32, i32* %7, align 4
  store i32 %61, i32* %11, align 4
  store i32 1, i32* %7, align 4
  br label %62

62:                                               ; preds = %119, %60
  %63 = load i32, i32* %7, align 4
  %64 = load i32, i32* %11, align 4
  %65 = icmp slt i32 %63, %64
  br i1 %65, label %66, label %122

66:                                               ; preds = %62
  %67 = load i32, i32* %7, align 4
  %68 = add nsw i32 %67, 1
  store i32 %68, i32* %6, align 4
  br label %69

69:                                               ; preds = %115, %66
  %70 = load i32, i32* %6, align 4
  %71 = load i32, i32* %11, align 4
  %72 = icmp sle i32 %70, %71
  br i1 %72, label %73, label %118

73:                                               ; preds = %69
  %74 = load i32, i32* %6, align 4
  %75 = sext i32 %74 to i64
  %76 = getelementptr inbounds [50 x i32], [50 x i32]* %10, i64 0, i64 %75
  %77 = load i32, i32* %76, align 4
  %78 = load i32, i32* %7, align 4
  %79 = sext i32 %78 to i64
  %80 = getelementptr inbounds [50 x i32], [50 x i32]* %10, i64 0, i64 %79
  %81 = load i32, i32* %80, align 4
  %82 = icmp sgt i32 %77, %81
  br i1 %82, label %83, label %114

83:                                               ; preds = %73
  %84 = load i32, i32* %7, align 4
  %85 = sext i32 %84 to i64
  %86 = getelementptr inbounds [50 x i32], [50 x i32]* %10, i64 0, i64 %85
  %87 = load i32, i32* %86, align 4
  store i32 %87, i32* %12, align 4
  %88 = load i32, i32* %6, align 4
  %89 = sext i32 %88 to i64
  %90 = getelementptr inbounds [50 x i32], [50 x i32]* %10, i64 0, i64 %89
  %91 = load i32, i32* %90, align 4
  %92 = load i32, i32* %7, align 4
  %93 = sext i32 %92 to i64
  %94 = getelementptr inbounds [50 x i32], [50 x i32]* %10, i64 0, i64 %93
  store i32 %91, i32* %94, align 4
  %95 = load i32, i32* %12, align 4
  %96 = load i32, i32* %6, align 4
  %97 = sext i32 %96 to i64
  %98 = getelementptr inbounds [50 x i32], [50 x i32]* %10, i64 0, i64 %97
  store i32 %95, i32* %98, align 4
  %99 = load i32, i32* %7, align 4
  %100 = sext i32 %99 to i64
  %101 = getelementptr inbounds [50 x i32], [50 x i32]* %9, i64 0, i64 %100
  %102 = load i32, i32* %101, align 4
  store i32 %102, i32* %13, align 4
  %103 = load i32, i32* %6, align 4
  %104 = sext i32 %103 to i64
  %105 = getelementptr inbounds [50 x i32], [50 x i32]* %9, i64 0, i64 %104
  %106 = load i32, i32* %105, align 4
  %107 = load i32, i32* %7, align 4
  %108 = sext i32 %107 to i64
  %109 = getelementptr inbounds [50 x i32], [50 x i32]* %9, i64 0, i64 %108
  store i32 %106, i32* %109, align 4
  %110 = load i32, i32* %13, align 4
  %111 = load i32, i32* %6, align 4
  %112 = sext i32 %111 to i64
  %113 = getelementptr inbounds [50 x i32], [50 x i32]* %9, i64 0, i64 %112
  store i32 %110, i32* %113, align 4
  br label %114

114:                                              ; preds = %83, %73
  br label %115

115:                                              ; preds = %114
  %116 = load i32, i32* %6, align 4
  %117 = add nsw i32 %116, 1
  store i32 %117, i32* %6, align 4
  br label %69

118:                                              ; preds = %69
  br label %119

119:                                              ; preds = %118
  %120 = load i32, i32* %7, align 4
  %121 = add nsw i32 %120, 1
  store i32 %121, i32* %7, align 4
  br label %62

122:                                              ; preds = %62
  %123 = getelementptr inbounds [50 x i32], [50 x i32]* %9, i64 0, i64 1
  %124 = load i32, i32* %123, align 4
  %125 = getelementptr inbounds [50 x i32], [50 x i32]* %10, i64 0, i64 1
  %126 = load i32, i32* %125, align 4
  %127 = sub nsw i32 %124, %126
  store i32 %127, i32* %6, align 4
  br label %128

128:                                              ; preds = %140, %122
  %129 = load i32, i32* %6, align 4
  %130 = getelementptr inbounds [50 x i32], [50 x i32]* %9, i64 0, i64 1
  %131 = load i32, i32* %130, align 4
  %132 = icmp slt i32 %129, %131
  br i1 %132, label %133, label %143

133:                                              ; preds = %128
  %134 = load i32, i32* %6, align 4
  %135 = sext i32 %134 to i64
  %136 = getelementptr inbounds [300 x i8], [300 x i8]* %14, i64 0, i64 %135
  %137 = load i8, i8* %136, align 1
  %138 = sext i8 %137 to i32
  %139 = call i32 (i8*, ...) @printf(i8* getelementptr inbounds ([3 x i8], [3 x i8]* @.str, i64 0, i64 0), i32 %138)
  br label %140

140:                                              ; preds = %133
  %141 = load i32, i32* %6, align 4
  %142 = add nsw i32 %141, 1
  store i32 %142, i32* %6, align 4
  br label %128

143:                                              ; preds = %128
  %144 = call i32 (i8*, ...) @printf(i8* getelementptr inbounds ([2 x i8], [2 x i8]* @.str.1, i64 0, i64 0))
  store i32 1, i32* %7, align 4
  br label %145

145:                                              ; preds = %202, %143
  %146 = load i32, i32* %7, align 4
  %147 = load i32, i32* %11, align 4
  %148 = icmp slt i32 %146, %147
  br i1 %148, label %149, label %205

149:                                              ; preds = %145
  %150 = load i32, i32* %7, align 4
  %151 = add nsw i32 %150, 1
  store i32 %151, i32* %6, align 4
  br label %152

152:                                              ; preds = %198, %149
  %153 = load i32, i32* %6, align 4
  %154 = load i32, i32* %11, align 4
  %155 = icmp sle i32 %153, %154
  br i1 %155, label %156, label %201

156:                                              ; preds = %152
  %157 = load i32, i32* %6, align 4
  %158 = sext i32 %157 to i64
  %159 = getelementptr inbounds [50 x i32], [50 x i32]* %10, i64 0, i64 %158
  %160 = load i32, i32* %159, align 4
  %161 = load i32, i32* %7, align 4
  %162 = sext i32 %161 to i64
  %163 = getelementptr inbounds [50 x i32], [50 x i32]* %10, i64 0, i64 %162
  %164 = load i32, i32* %163, align 4
  %165 = icmp slt i32 %160, %164
  br i1 %165, label %166, label %197

166:                                              ; preds = %156
  %167 = load i32, i32* %7, align 4
  %168 = sext i32 %167 to i64
  %169 = getelementptr inbounds [50 x i32], [50 x i32]* %10, i64 0, i64 %168
  %170 = load i32, i32* %169, align 4
  store i32 %170, i32* %12, align 4
  %171 = load i32, i32* %6, align 4
  %172 = sext i32 %171 to i64
  %173 = getelementptr inbounds [50 x i32], [50 x i32]* %10, i64 0, i64 %172
  %174 = load i32, i32* %173, align 4
  %175 = load i32, i32* %7, align 4
  %176 = sext i32 %175 to i64
  %177 = getelementptr inbounds [50 x i32], [50 x i32]* %10, i64 0, i64 %176
  store i32 %174, i32* %177, align 4
  %178 = load i32, i32* %12, align 4
  %179 = load i32, i32* %6, align 4
  %180 = sext i32 %179 to i64
  %181 = getelementptr inbounds [50 x i32], [50 x i32]* %10, i64 0, i64 %180
  store i32 %178, i32* %181, align 4
  %182 = load i32, i32* %7, align 4
  %183 = sext i32 %182 to i64
  %184 = getelementptr inbounds [50 x i32], [50 x i32]* %9, i64 0, i64 %183
  %185 = load i32, i32* %184, align 4
  store i32 %185, i32* %13, align 4
  %186 = load i32, i32* %6, align 4
  %187 = sext i32 %186 to i64
  %188 = getelementptr inbounds [50 x i32], [50 x i32]* %9, i64 0, i64 %187
  %189 = load i32, i32* %188, align 4
  %190 = load i32, i32* %7, align 4
  %191 = sext i32 %190 to i64
  %192 = getelementptr inbounds [50 x i32], [50 x i32]* %9, i64 0, i64 %191
  store i32 %189, i32* %192, align 4
  %193 = load i32, i32* %13, align 4
  %194 = load i32, i32* %6, align 4
  %195 = sext i32 %194 to i64
  %196 = getelementptr inbounds [50 x i32], [50 x i32]* %9, i64 0, i64 %195
  store i32 %193, i32* %196, align 4
  br label %197

197:                                              ; preds = %166, %156
  br label %198

198:                                              ; preds = %197
  %199 = load i32, i32* %6, align 4
  %200 = add nsw i32 %199, 1
  store i32 %200, i32* %6, align 4
  br label %152

201:                                              ; preds = %152
  br label %202

202:                                              ; preds = %201
  %203 = load i32, i32* %7, align 4
  %204 = add nsw i32 %203, 1
  store i32 %204, i32* %7, align 4
  br label %145

205:                                              ; preds = %145
  %206 = getelementptr inbounds [50 x i32], [50 x i32]* %9, i64 0, i64 1
  %207 = load i32, i32* %206, align 4
  %208 = getelementptr inbounds [50 x i32], [50 x i32]* %10, i64 0, i64 1
  %209 = load i32, i32* %208, align 4
  %210 = sub nsw i32 %207, %209
  store i32 %210, i32* %6, align 4
  br label %211

211:                                              ; preds = %223, %205
  %212 = load i32, i32* %6, align 4
  %213 = getelementptr inbounds [50 x i32], [50 x i32]* %9, i64 0, i64 1
  %214 = load i32, i32* %213, align 4
  %215 = icmp slt i32 %212, %214
  br i1 %215, label %216, label %226

216:                                              ; preds = %211
  %217 = load i32, i32* %6, align 4
  %218 = sext i32 %217 to i64
  %219 = getelementptr inbounds [300 x i8], [300 x i8]* %14, i64 0, i64 %218
  %220 = load i8, i8* %219, align 1
  %221 = sext i8 %220 to i32
  %222 = call i32 (i8*, ...) @printf(i8* getelementptr inbounds ([3 x i8], [3 x i8]* @.str, i64 0, i64 0), i32 %221)
  br label %223

223:                                              ; preds = %216
  %224 = load i32, i32* %6, align 4
  %225 = add nsw i32 %224, 1
  store i32 %225, i32* %6, align 4
  br label %211

226:                                              ; preds = %211
  %227 = call i32 (i8*, ...) @printf(i8* getelementptr inbounds ([2 x i8], [2 x i8]* @.str.1, i64 0, i64 0))
  ret i32 0
}

declare dso_local i32 @gets(...) #1

; Function Attrs: nounwind readonly
declare dso_local i64 @strlen(i8*) #2

declare dso_local i32 @printf(i8*, ...) #1


!llvm.module.flags = !{!0}
!llvm.ident = !{!1}

!0 = !{i32 1, !"wchar_size", i32 4}
!1 = !{!"clang version 10.0.0-4ubuntu1 "}
